target datalayout = "e-m:e-p270:32:32-p271:32:32-p272:64:64-i64:64-i128:128-f80:128-n8:16:32:64-S128"
target triple = "x86_64-pc-linux-gnu"

@.str.28 = private unnamed_addr constant [34 x i8] c"../openssl/test/evp_extra_test2.c\00", align 1
@.str.69 = private unnamed_addr constant [2 x i8] c"0\00", align 1
@.str.116 = private unnamed_addr constant [35 x i8] c"p = OSSL_PARAM_locate(params, key)\00", align 1
@.str.117 = private unnamed_addr constant [26 x i8] c"OSSL_PARAM_get_BN(p, &bn)\00", align 1
@.str.118 = private unnamed_addr constant [45 x i8] c"len = BN_bn2binpad(bn, buffer, expected_len)\00", align 1
@.str.119 = private unnamed_addr constant [9 x i8] c"expected\00", align 1
@.str.120 = private unnamed_addr constant [7 x i8] c"buffer\00", align 1

; Function Attrs: nounwind uwtable
define internal i32 @do_check_bn(ptr noundef %0, ptr noundef %1, ptr noundef %2, i64 noundef %3) #0 {
  %5 = alloca ptr, align 8
  %6 = alloca ptr, align 8
  %7 = alloca ptr, align 8
  %8 = alloca i64, align 8
  %9 = alloca ptr, align 8
  %10 = alloca ptr, align 8
  %11 = alloca [257 x i8], align 16
  %12 = alloca i32, align 4
  %13 = alloca i32, align 4
  store ptr %0, ptr %5, align 8, !tbaa !35
  store ptr %1, ptr %6, align 8, !tbaa !21
  store ptr %2, ptr %7, align 8, !tbaa !21
  store i64 %3, ptr %8, align 8, !tbaa !23
  call void @llvm.lifetime.start.p0(i64 8, ptr %9) #7
  call void @llvm.lifetime.start.p0(i64 8, ptr %10) #7
  store ptr null, ptr %10, align 8, !tbaa !25
  call void @llvm.lifetime.start.p0(i64 257, ptr %11) #7
  call void @llvm.lifetime.start.p0(i64 4, ptr %12) #7
  call void @llvm.lifetime.start.p0(i64 4, ptr %13) #7
  %14 = load ptr, ptr %5, align 8, !tbaa !35
  %15 = load ptr, ptr %6, align 8, !tbaa !21
  %16 = call ptr @OSSL_PARAM_locate(ptr noundef %14, ptr noundef %15)
  store ptr %16, ptr %9, align 8, !tbaa !35
  %17 = call i32 @test_ptr(ptr noundef @.str.28, i32 noundef 1059, ptr noundef @.str.116, ptr noundef %16)
  %18 = icmp ne i32 %17, 0
  br i1 %18, label %19, label %42

19:                                               ; preds = %4
  %20 = load ptr, ptr %9, align 8, !tbaa !35
  %21 = call i32 @OSSL_PARAM_get_BN(ptr noundef %20, ptr noundef %10)
  %22 = icmp ne i32 %21, 0
  %23 = zext i1 %22 to i32
  %24 = call i32 @test_true(ptr noundef @.str.28, i32 noundef 1060, ptr noundef @.str.117, i32 noundef %23)
  %25 = icmp ne i32 %24, 0
  br i1 %25, label %26, label %42

26:                                               ; preds = %19
  %27 = load ptr, ptr %10, align 8, !tbaa !25
  %28 = getelementptr inbounds [257 x i8], ptr %11, i64 0, i64 0
  %29 = load i64, ptr %8, align 8, !tbaa !23
  %30 = trunc i64 %29 to i32
  %31 = call i32 @BN_bn2binpad(ptr noundef %27, ptr noundef %28, i32 noundef %30)
  store i32 %31, ptr %13, align 4, !tbaa !11
  %32 = call i32 @test_int_gt(ptr noundef @.str.28, i32 noundef 1061, ptr noundef @.str.118, ptr noundef @.str.69, i32 noundef %31, i32 noundef 0)
  %33 = icmp ne i32 %32, 0
  br i1 %33, label %34, label %42

34:                                               ; preds = %26
  %35 = load ptr, ptr %7, align 8, !tbaa !21
  %36 = load i64, ptr %8, align 8, !tbaa !23
  %37 = getelementptr inbounds [257 x i8], ptr %11, i64 0, i64 0
  %38 = load i32, ptr %13, align 4, !tbaa !11
  %39 = sext i32 %38 to i64
  %40 = call i32 @test_mem_eq(ptr noundef @.str.28, i32 noundef 1062, ptr noundef @.str.119, ptr noundef @.str.120, ptr noundef %35, i64 noundef %36, ptr noundef %37, i64 noundef %39)
  %41 = icmp ne i32 %40, 0
  br label %42

42:                                               ; preds = %34, %26, %19, %4
  %43 = phi i1 [ false, %26 ], [ false, %19 ], [ false, %4 ], [ %41, %34 ]
  %44 = zext i1 %43 to i32
  store i32 %44, ptr %12, align 4, !tbaa !11
  %45 = load ptr, ptr %10, align 8, !tbaa !25
  call void @BN_free(ptr noundef %45)
  %46 = load i32, ptr %12, align 4, !tbaa !11
  call void @llvm.lifetime.end.p0(i64 4, ptr %13) #7
  call void @llvm.lifetime.end.p0(i64 4, ptr %12) #7
  call void @llvm.lifetime.end.p0(i64 257, ptr %11) #7
  call void @llvm.lifetime.end.p0(i64 8, ptr %10) #7
  call void @llvm.lifetime.end.p0(i64 8, ptr %9) #7
  ret i32 %46
}