; Function Attrs: nounwind uwtable
define internal fastcc range(i32 0, 2) i32 @do_check_bn(ptr noundef %0, ptr noundef %1, ptr noundef %2, i64 noundef range(i64 28, 258) %3) unnamed_addr #0 {
  %5 = alloca ptr, align 8
  %6 = alloca [257 x i8], align 16
  call void @llvm.lifetime.start.p0(i64 8, ptr nonnull %5) #7
  store ptr null, ptr %5, align 8, !tbaa !16
  call void @llvm.lifetime.start.p0(i64 257, ptr nonnull %6) #7
  %7 = tail call ptr @OSSL_PARAM_locate(ptr noundef %0, ptr noundef %1) #7
  %8 = tail call i32 @test_ptr(ptr noundef nonnull @.str.28, i32 noundef 1059, ptr noundef nonnull @.str.116, ptr noundef %7) #7
  %.not = icmp eq i32 %8, 0
  br i1 %.not, label %24, label %9

9:                                                ; preds = %4
  %10 = call i32 @OSSL_PARAM_get_BN(ptr noundef %7, ptr noundef nonnull %5) #7
  %11 = icmp ne i32 %10, 0
  %12 = zext i1 %11 to i32
  %13 = call i32 @test_true(ptr noundef nonnull @.str.28, i32 noundef 1060, ptr noundef nonnull @.str.117, i32 noundef %12) #7
  %.not7 = icmp eq i32 %13, 0
  br i1 %.not7, label %24, label %14

14:                                               ; preds = %9
  %15 = load ptr, ptr %5, align 8, !tbaa !16
  %16 = trunc nuw nsw i64 %3 to i32
  %17 = call i32 @BN_bn2binpad(ptr noundef %15, ptr noundef nonnull %6, i32 noundef %16) #7
  %18 = call i32 @test_int_gt(ptr noundef nonnull @.str.28, i32 noundef 1061, ptr noundef nonnull @.str.118, ptr noundef nonnull @.str.69, i32 noundef %17, i32 noundef 0) #7
  %.not8 = icmp eq i32 %18, 0
  br i1 %.not8, label %24, label %19

19:                                               ; preds = %14
  %20 = sext i32 %17 to i64
  %21 = call i32 @test_mem_eq(ptr noundef nonnull @.str.28, i32 noundef 1062, ptr noundef nonnull @.str.119, ptr noundef nonnull @.str.120, ptr noundef %2, i64 noundef %3, ptr noundef nonnull %6, i64 noundef %20) #7
  %22 = icmp ne i32 %21, 0
  %23 = zext i1 %22 to i32
  br label %24

24:                                               ; preds = %19, %14, %9, %4
  %25 = phi i32 [ 0, %14 ], [ 0, %9 ], [ 0, %4 ], [ %23, %19 ]
  %26 = load ptr, ptr %5, align 8, !tbaa !16
  call void @BN_free(ptr noundef %26) #7
  call void @llvm.lifetime.end.p0(i64 257, ptr nonnull %6) #7
  call void @llvm.lifetime.end.p0(i64 8, ptr nonnull %5) #7
  ret i32 %25
}